target datalayout = "e-m:e-p270:32:32-p271:32:32-p272:64:64-i64:64-i128:128-f80:128-n8:16:32:64-S128"
target triple = "x86_64-pc-linux-gnu"

%struct.DdManager = type { %struct.DdNode, ptr, ptr, ptr, ptr, ptr, ptr, ptr, i32, i32, double, double, double, i32, i32, i32, i32, i32, i32, ptr, ptr, %struct.DdSubtable, i32, i32, i32, i32, i32, i32, i32, double, i32, i32, i32, ptr, i64, double, i32, ptr, ptr, ptr, ptr, ptr, ptr, ptr, i32, ptr, ptr, ptr, ptr, ptr, ptr, i32, i32, i32, double, i32, i32, i32, i32, double, double, i32, i32, i32, i32, i32, i32, i32, i32, i32, ptr, ptr, i32, i32, i32, i32, i32, i32, ptr, ptr, ptr, ptr, ptr, ptr, ptr, ptr, i32, i64, i64, i64, i32, i64, i64, double, double, double, double, double, double, i32, ptr, ptr, i64 }
%struct.DdNode = type { i32, i32, ptr, %union.anon, i64 }
%union.anon = type { %struct.DdChildren }
%struct.DdChildren = type { ptr, ptr }
%struct.DdSubtable = type { ptr, i32, i32, i32, i32, i32, i32, i32, i32, i32, i32, i32 }
%struct.DdGen = type { ptr, i32, i32, %union.anon.0, %struct.anon.3, ptr }
%union.anon.0 = type { %struct.anon }
%struct.anon = type { ptr, double }
%struct.anon.3 = type { i32, ptr }
%struct.anon.2 = type { i32 }

; Function Attrs: nounwind uwtable
define ptr @cuddNodeArray(ptr noundef %0, ptr noundef %1) #0 {
  %3 = alloca ptr, align 8
  %4 = alloca ptr, align 8
  %5 = alloca ptr, align 8
  %6 = alloca ptr, align 8
  %7 = alloca i32, align 4
  %8 = alloca i32, align 4
  store ptr %0, ptr %4, align 8
  store ptr %1, ptr %5, align 8
  %9 = load ptr, ptr %4, align 8
  %10 = ptrtoint ptr %9 to i64
  %11 = and i64 %10, -2
  %12 = inttoptr i64 %11 to ptr
  %13 = call i32 @ddDagInt(ptr noundef %12)
  store i32 %13, ptr %7, align 4
  %14 = load i32, ptr %7, align 4
  %15 = sext i32 %14 to i64
  %16 = mul i64 8, %15
  %17 = call noalias ptr @malloc(i64 noundef %16) #5
  store ptr %17, ptr %6, align 8
  %18 = load ptr, ptr %6, align 8
  %19 = icmp eq ptr %18, null
  br i1 %19, label %20, label %25

20:                                               ; preds = %2
  %21 = load ptr, ptr %4, align 8
  %22 = ptrtoint ptr %21 to i64
  %23 = and i64 %22, -2
  %24 = inttoptr i64 %23 to ptr
  call void @ddClearFlag(ptr noundef %24)
  store ptr null, ptr %3, align 8
  br label %32

25:                                               ; preds = %2
  %26 = load ptr, ptr %4, align 8
  %27 = load ptr, ptr %6, align 8
  %28 = call i32 @cuddNodeArrayRecur(ptr noundef %26, ptr noundef %27, i32 noundef 0)
  store i32 %28, ptr %8, align 4
  %29 = load i32, ptr %7, align 4
  %30 = load ptr, ptr %5, align 8
  store i32 %29, ptr %30, align 4
  %31 = load ptr, ptr %6, align 8
  store ptr %31, ptr %3, align 8
  br label %32

32:                                               ; preds = %25, %20
  %33 = load ptr, ptr %3, align 8
  ret ptr %33
}

; Function Attrs: nounwind uwtable
define ptr @Cudd_FirstNode(ptr noundef %0, ptr noundef %1, ptr noundef %2) #0 {
  %4 = alloca ptr, align 8
  %5 = alloca ptr, align 8
  %6 = alloca ptr, align 8
  %7 = alloca ptr, align 8
  %8 = alloca ptr, align 8
  %9 = alloca i32, align 4
  store ptr %0, ptr %5, align 8
  store ptr %1, ptr %6, align 8
  store ptr %2, ptr %7, align 8
  %10 = load ptr, ptr %5, align 8
  %11 = icmp eq ptr %10, null
  br i1 %11, label %15, label %12

12:                                               ; preds = %3
  %13 = load ptr, ptr %6, align 8
  %14 = icmp eq ptr %13, null
  br i1 %14, label %15, label %16

15:                                               ; preds = %12, %3
  store ptr null, ptr %4, align 8
  br label %94

16:                                               ; preds = %12
  %17 = call noalias ptr @malloc(i64 noundef 56) #5
  store ptr %17, ptr %8, align 8
  %18 = load ptr, ptr %8, align 8
  %19 = icmp eq ptr %18, null
  br i1 %19, label %20, label %23

20:                                               ; preds = %16
  %21 = load ptr, ptr %5, align 8
  %22 = getelementptr inbounds %struct.DdManager, ptr %21, i32 0, i32 86
  store i32 1, ptr %22, align 8
  store ptr null, ptr %4, align 8
  br label %94

23:                                               ; preds = %16
  %24 = load ptr, ptr %5, align 8
  %25 = load ptr, ptr %8, align 8
  %26 = getelementptr inbounds %struct.DdGen, ptr %25, i32 0, i32 0
  store ptr %24, ptr %26, align 8
  %27 = load ptr, ptr %8, align 8
  %28 = getelementptr inbounds %struct.DdGen, ptr %27, i32 0, i32 1
  store i32 2, ptr %28, align 8
  %29 = load ptr, ptr %8, align 8
  %30 = getelementptr inbounds %struct.DdGen, ptr %29, i32 0, i32 2
  store i32 0, ptr %30, align 4
  %31 = load ptr, ptr %8, align 8
  %32 = getelementptr inbounds %struct.DdGen, ptr %31, i32 0, i32 4
  %33 = getelementptr inbounds %struct.anon.3, ptr %32, i32 0, i32 0
  store i32 0, ptr %33, align 8
  %34 = load ptr, ptr %8, align 8
  %35 = getelementptr inbounds %struct.DdGen, ptr %34, i32 0, i32 5
  store ptr null, ptr %35, align 8
  %36 = load ptr, ptr %6, align 8
  %37 = ptrtoint ptr %36 to i64
  %38 = and i64 %37, -2
  %39 = inttoptr i64 %38 to ptr
  %40 = call ptr @cuddNodeArray(ptr noundef %39, ptr noundef %9)
  %41 = load ptr, ptr %8, align 8
  %42 = getelementptr inbounds %struct.DdGen, ptr %41, i32 0, i32 4
  %43 = getelementptr inbounds %struct.anon.3, ptr %42, i32 0, i32 1
  store ptr %40, ptr %43, align 8
  %44 = load ptr, ptr %8, align 8
  %45 = getelementptr inbounds %struct.DdGen, ptr %44, i32 0, i32 4
  %46 = getelementptr inbounds %struct.anon.3, ptr %45, i32 0, i32 1
  %47 = load ptr, ptr %46, align 8
  %48 = icmp eq ptr %47, null
  br i1 %48, label %49, label %58

49:                                               ; preds = %23
  %50 = load ptr, ptr %8, align 8
  %51 = icmp ne ptr %50, null
  br i1 %51, label %52, label %54

52:                                               ; preds = %49
  %53 = load ptr, ptr %8, align 8
  call void @free(ptr noundef %53) #6
  store ptr null, ptr %8, align 8
  br label %55

54:                                               ; preds = %49
  br label %55

55:                                               ; preds = %54, %52
  %56 = load ptr, ptr %5, align 8
  %57 = getelementptr inbounds %struct.DdManager, ptr %56, i32 0, i32 86
  store i32 1, ptr %57, align 8
  store ptr null, ptr %4, align 8
  br label %94

58:                                               ; preds = %23
  %59 = load i32, ptr %9, align 4
  %60 = load ptr, ptr %8, align 8
  %61 = getelementptr inbounds %struct.DdGen, ptr %60, i32 0, i32 3
  %62 = getelementptr inbounds %struct.anon.2, ptr %61, i32 0, i32 0
  store i32 %59, ptr %62, align 8
  %63 = load ptr, ptr %8, align 8
  %64 = getelementptr inbounds %struct.DdGen, ptr %63, i32 0, i32 4
  %65 = getelementptr inbounds %struct.anon.3, ptr %64, i32 0, i32 0
  %66 = load i32, ptr %65, align 8
  %67 = load ptr, ptr %8, align 8
  %68 = getelementptr inbounds %struct.DdGen, ptr %67, i32 0, i32 3
  %69 = getelementptr inbounds %struct.anon.2, ptr %68, i32 0, i32 0
  %70 = load i32, ptr %69, align 8
  %71 = icmp slt i32 %66, %70
  br i1 %71, label %72, label %92

72:                                               ; preds = %58
  %73 = load ptr, ptr %8, align 8
  %74 = getelementptr inbounds %struct.DdGen, ptr %73, i32 0, i32 2
  store i32 1, ptr %74, align 4
  %75 = load ptr, ptr %8, align 8
  %76 = getelementptr inbounds %struct.DdGen, ptr %75, i32 0, i32 4
  %77 = getelementptr inbounds %struct.anon.3, ptr %76, i32 0, i32 1
  %78 = load ptr, ptr %77, align 8
  %79 = load ptr, ptr %8, align 8
  %80 = getelementptr inbounds %struct.DdGen, ptr %79, i32 0, i32 4
  %81 = getelementptr inbounds %struct.anon.3, ptr %80, i32 0, i32 0
  %82 = load i32, ptr %81, align 8
  %83 = sext i32 %82 to i64
  %84 = getelementptr inbounds ptr, ptr %78, i64 %83
  %85 = load ptr, ptr %84, align 8
  %86 = load ptr, ptr %8, align 8
  %87 = getelementptr inbounds %struct.DdGen, ptr %86, i32 0, i32 5
  store ptr %85, ptr %87, align 8
  %88 = load ptr, ptr %8, align 8
  %89 = getelementptr inbounds %struct.DdGen, ptr %88, i32 0, i32 5
  %90 = load ptr, ptr %89, align 8
  %91 = load ptr, ptr %7, align 8
  store ptr %90, ptr %91, align 8
  br label %92

92:                                               ; preds = %72, %58
  %93 = load ptr, ptr %8, align 8
  store ptr %93, ptr %4, align 8
  br label %94

94:                                               ; preds = %92, %55, %20, %15
  %95 = load ptr, ptr %4, align 8
  ret ptr %95
}