; Function Attrs: nounwind uwtable
define noalias noundef ptr @Cudd_FirstNode(ptr noundef %0, ptr noundef %1, ptr noundef writeonly captures(none) %2) local_unnamed_addr #0 {
  %4 = icmp eq ptr %0, null
  %5 = icmp eq ptr %1, null
  %or.cond = or i1 %4, %5
  br i1 %or.cond, label %33, label %6

6:                                                ; preds = %3
  %7 = tail call noalias dereferenceable_or_null(56) ptr @malloc(i64 noundef 56) #22
  %8 = icmp eq ptr %7, null
  br i1 %8, label %9, label %11

9:                                                ; preds = %6
  %10 = getelementptr inbounds nuw i8, ptr %0, i64 624
  store i32 1, ptr %10, align 8
  br label %33

11:                                               ; preds = %6
  store ptr %0, ptr %7, align 8
  %12 = getelementptr inbounds nuw i8, ptr %7, i64 8
  store i32 2, ptr %12, align 8
  %13 = getelementptr inbounds nuw i8, ptr %7, i64 12
  store i32 0, ptr %13, align 4
  %14 = getelementptr inbounds nuw i8, ptr %7, i64 32
  store i32 0, ptr %14, align 8
  %15 = getelementptr inbounds nuw i8, ptr %7, i64 48
  store ptr null, ptr %15, align 8
  %16 = ptrtoint ptr %1 to i64
  %17 = and i64 %16, -2
  %18 = inttoptr i64 %17 to ptr
  %19 = tail call fastcc i32 @ddDagInt(ptr noundef %18)
  %20 = sext i32 %19 to i64
  %21 = shl nsw i64 %20, 3
  %22 = tail call noalias ptr @malloc(i64 noundef %21) #22
  %23 = icmp eq ptr %22, null
  br i1 %23, label %24, label %26

24:                                               ; preds = %11
  tail call fastcc void @ddClearFlag(ptr noundef %18)
  tail call void @free(ptr noundef nonnull %7) #23
  %25 = getelementptr inbounds nuw i8, ptr %0, i64 624
  store i32 1, ptr %25, align 8
  br label %33

26:                                               ; preds = %11
  %27 = tail call fastcc i32 @cuddNodeArrayRecur(ptr noundef %18, ptr noundef %22, i32 noundef 0)
  %28 = getelementptr inbounds nuw i8, ptr %7, i64 40
  store ptr %22, ptr %28, align 8
  %29 = getelementptr inbounds nuw i8, ptr %7, i64 16
  store i32 %19, ptr %29, align 8
  %30 = icmp sgt i32 %19, 0
  br i1 %30, label %31, label %33

31:                                               ; preds = %26
  store i32 1, ptr %13, align 4
  %32 = load ptr, ptr %22, align 8
  store ptr %32, ptr %15, align 8
  store ptr %32, ptr %2, align 8
  br label %33

33:                                               ; preds = %26, %31, %3, %24, %9
  %.0 = phi ptr [ null, %9 ], [ null, %24 ], [ null, %3 ], [ %7, %31 ], [ %7, %26 ]
  ret ptr %.0
}